; Function Attrs: mustprogress nofree nounwind memory(read, argmem: readwrite, inaccessiblemem: none) uwtable
define dso_local void @_ZN4llvm7AArch648parseCpuENS_9StringRefE(ptr dead_on_unwind noalias writable writeonly sret(%"class.std::optional") align 8 captures(none) %0, ptr readonly captures(none) %1, i64 %2) local_unnamed_addr #2 {
  %.fr28 = freeze i64 %2
  %4 = icmp eq i64 %.fr28, 0
  br i1 %4, label %.split.us, label %.split

.split.us:                                        ; preds = %3, %_ZN4llvmeqENS_9StringRefES0_.exit.thread12.i.us
  %.0.idx15.i.us = phi i64 [ %.0.add.i.us, %_ZN4llvmeqENS_9StringRefES0_.exit.thread12.i.us ], [ 0, %3 ]
  %.0.ptr16.i.us = getelementptr inbounds nuw i8, ptr @_ZN4llvm7AArch6410CpuAliasesE, i64 %.0.idx15.i.us
  %.sroa.22.0..sroa_idx.i.us = getelementptr inbounds nuw i8, ptr %.0.ptr16.i.us, i64 8
  %.sroa.22.0.copyload.i.us = load i64, ptr %.sroa.22.0..sroa_idx.i.us, align 8
  %.not.i.i.us = icmp eq i64 %.sroa.22.0.copyload.i.us, 0
  br i1 %.not.i.i.us, label %_ZN4llvmeqENS_9StringRefES0_.exit.thread.i, label %_ZN4llvmeqENS_9StringRefES0_.exit.thread12.i.us

_ZN4llvmeqENS_9StringRefES0_.exit.thread12.i.us:  ; preds = %.split.us
  %.0.add.i.us = add nuw nsw i64 %.0.idx15.i.us, 32
  %.not.i.us = icmp eq i64 %.0.add.i.us, 352
  br i1 %.not.i.us, label %_ZN4llvm7AArch6415resolveCPUAliasENS_9StringRefE.exit.split.us.preheader, label %.split.us

.split:                                           ; preds = %3, %_ZN4llvmeqENS_9StringRefES0_.exit.thread12.i
  %.0.idx15.i = phi i64 [ %.0.add.i, %_ZN4llvmeqENS_9StringRefES0_.exit.thread12.i ], [ 0, %3 ]
  %.0.ptr16.i = getelementptr inbounds nuw i8, ptr @_ZN4llvm7AArch6410CpuAliasesE, i64 %.0.idx15.i
  %.sroa.22.0..sroa_idx.i = getelementptr inbounds nuw i8, ptr %.0.ptr16.i, i64 8
  %.sroa.22.0.copyload.i = load i64, ptr %.sroa.22.0..sroa_idx.i, align 8
  %.not.i.i = icmp eq i64 %.sroa.22.0.copyload.i, %.fr28
  br i1 %.not.i.i, label %_ZN4llvmeqENS_9StringRefES0_.exit.i, label %_ZN4llvmeqENS_9StringRefES0_.exit.thread12.i

_ZN4llvmeqENS_9StringRefES0_.exit.i:              ; preds = %.split
  %.sroa.01.0.copyload.i = load ptr, ptr %.0.ptr16.i, align 16
  %bcmp.i.i = tail call i32 @bcmp(ptr %.sroa.01.0.copyload.i, ptr %1, i64 %.fr28)
  %5 = icmp eq i32 %bcmp.i.i, 0
  br i1 %5, label %_ZN4llvmeqENS_9StringRefES0_.exit.thread.i, label %_ZN4llvmeqENS_9StringRefES0_.exit.thread12.i

_ZN4llvmeqENS_9StringRefES0_.exit.thread.i:       ; preds = %_ZN4llvmeqENS_9StringRefES0_.exit.i, %.split.us
  %.us-phi = phi ptr [ %.0.ptr16.i.us, %.split.us ], [ %.0.ptr16.i, %_ZN4llvmeqENS_9StringRefES0_.exit.i ]
  %6 = getelementptr inbounds nuw i8, ptr %.us-phi, i64 16
  %.sroa.09.0.copyload.i = load ptr, ptr %6, align 8
  %.sroa.310.0..sroa_idx.i = getelementptr inbounds nuw i8, ptr %.us-phi, i64 24
  %.sroa.310.0.copyload.i = load i64, ptr %.sroa.310.0..sroa_idx.i, align 8
  %7 = freeze i64 %.sroa.310.0.copyload.i
  br label %_ZN4llvm7AArch6415resolveCPUAliasENS_9StringRefE.exit

_ZN4llvmeqENS_9StringRefES0_.exit.thread12.i:     ; preds = %_ZN4llvmeqENS_9StringRefES0_.exit.i, %.split
  %.0.add.i = add nuw nsw i64 %.0.idx15.i, 32
  %.not.i = icmp eq i64 %.0.add.i, 352
  br i1 %.not.i, label %_ZN4llvm7AArch6415resolveCPUAliasENS_9StringRefE.exit, label %.split

_ZN4llvm7AArch6415resolveCPUAliasENS_9StringRefE.exit: ; preds = %_ZN4llvmeqENS_9StringRefES0_.exit.thread12.i, %_ZN4llvmeqENS_9StringRefES0_.exit.thread.i
  %.sroa.09.0.i = phi ptr [ %.sroa.09.0.copyload.i, %_ZN4llvmeqENS_9StringRefES0_.exit.thread.i ], [ %1, %_ZN4llvmeqENS_9StringRefES0_.exit.thread12.i ]
  %.sroa.310.0.i = phi i64 [ %7, %_ZN4llvmeqENS_9StringRefES0_.exit.thread.i ], [ %.fr28, %_ZN4llvmeqENS_9StringRefES0_.exit.thread12.i ]
  %8 = icmp eq i64 %.sroa.310.0.i, 0
  br i1 %8, label %_ZN4llvm7AArch6415resolveCPUAliasENS_9StringRefE.exit.split.us.preheader, label %_ZN4llvm7AArch6415resolveCPUAliasENS_9StringRefE.exit.split

_ZN4llvm7AArch6415resolveCPUAliasENS_9StringRefE.exit.split.us.preheader: ; preds = %_ZN4llvmeqENS_9StringRefES0_.exit.thread12.i.us, %_ZN4llvm7AArch6415resolveCPUAliasENS_9StringRefE.exit
  br label %_ZN4llvm7AArch6415resolveCPUAliasENS_9StringRefE.exit.split.us

_ZN4llvm7AArch6415resolveCPUAliasENS_9StringRefE.exit.split.us: ; preds = %_ZN4llvm7AArch6415resolveCPUAliasENS_9StringRefE.exit.split.us.preheader, %_ZN4llvmeqENS_9StringRefES0_.exit.thread16.us
  %.0.idx21.us = phi i64 [ %.0.add.us, %_ZN4llvmeqENS_9StringRefES0_.exit.thread16.us ], [ 0, %_ZN4llvm7AArch6415resolveCPUAliasENS_9StringRefE.exit.split.us.preheader ]
  %.0.ptr22.us = getelementptr inbounds nuw i8, ptr @_ZN4llvm7AArch648CpuInfosE, i64 %.0.idx21.us
  %.sroa.2.0..sroa_idx.us = getelementptr inbounds nuw i8, ptr %.0.ptr22.us, i64 8
  %.sroa.2.0.copyload.us = load i64, ptr %.sroa.2.0..sroa_idx.us, align 8
  %.not.i14.us = icmp eq i64 %.sroa.2.0.copyload.us, 0
  br i1 %.not.i14.us, label %_ZN4llvmeqENS_9StringRefES0_.exit.thread, label %_ZN4llvmeqENS_9StringRefES0_.exit.thread16.us

_ZN4llvmeqENS_9StringRefES0_.exit.thread16.us:    ; preds = %_ZN4llvm7AArch6415resolveCPUAliasENS_9StringRefE.exit.split.us
  %.0.add.us = add nuw nsw i64 %.0.idx21.us, 40
  %.not.us = icmp eq i64 %.0.add.us, 2840
  br i1 %.not.us, label %.split25.us, label %_ZN4llvm7AArch6415resolveCPUAliasENS_9StringRefE.exit.split.us

_ZN4llvm7AArch6415resolveCPUAliasENS_9StringRefE.exit.split: ; preds = %_ZN4llvm7AArch6415resolveCPUAliasENS_9StringRefE.exit, %_ZN4llvmeqENS_9StringRefES0_.exit.thread16
  %.0.idx21 = phi i64 [ %.0.add, %_ZN4llvmeqENS_9StringRefES0_.exit.thread16 ], [ 0, %_ZN4llvm7AArch6415resolveCPUAliasENS_9StringRefE.exit ]
  %.0.ptr22 = getelementptr inbounds nuw i8, ptr @_ZN4llvm7AArch648CpuInfosE, i64 %.0.idx21
  %.sroa.2.0..sroa_idx = getelementptr inbounds nuw i8, ptr %.0.ptr22, i64 8
  %.sroa.2.0.copyload = load i64, ptr %.sroa.2.0..sroa_idx, align 8
  %.not.i14 = icmp eq i64 %.sroa.310.0.i, %.sroa.2.0.copyload
  br i1 %.not.i14, label %_ZN4llvmeqENS_9StringRefES0_.exit, label %_ZN4llvmeqENS_9StringRefES0_.exit.thread16

_ZN4llvmeqENS_9StringRefES0_.exit:                ; preds = %_ZN4llvm7AArch6415resolveCPUAliasENS_9StringRefE.exit.split
  %.sroa.0.0.copyload = load ptr, ptr %.0.ptr22, align 8
  %bcmp.i = tail call i32 @bcmp(ptr %.sroa.09.0.i, ptr %.sroa.0.0.copyload, i64 %.sroa.310.0.i)
  %9 = icmp eq i32 %bcmp.i, 0
  br i1 %9, label %_ZN4llvmeqENS_9StringRefES0_.exit.thread, label %_ZN4llvmeqENS_9StringRefES0_.exit.thread16

_ZN4llvmeqENS_9StringRefES0_.exit.thread:         ; preds = %_ZN4llvmeqENS_9StringRefES0_.exit, %_ZN4llvm7AArch6415resolveCPUAliasENS_9StringRefE.exit.split.us
  %.us-phi23 = phi ptr [ %.0.ptr22.us, %_ZN4llvm7AArch6415resolveCPUAliasENS_9StringRefE.exit.split.us ], [ %.0.ptr22, %_ZN4llvmeqENS_9StringRefES0_.exit ]
  tail call void @llvm.memcpy.p0.p0.i64(ptr noundef nonnull align 8 dereferenceable(48) %0, ptr noundef nonnull align 8 dereferenceable(40) %.us-phi23, i64 40, i1 false)
  br label %.split25.us

_ZN4llvmeqENS_9StringRefES0_.exit.thread16:       ; preds = %_ZN4llvm7AArch6415resolveCPUAliasENS_9StringRefE.exit.split, %_ZN4llvmeqENS_9StringRefES0_.exit
  %.0.add = add nuw nsw i64 %.0.idx21, 40
  %.not = icmp eq i64 %.0.add, 2840
  br i1 %.not, label %.split25.us, label %_ZN4llvm7AArch6415resolveCPUAliasENS_9StringRefE.exit.split

.split25.us:                                      ; preds = %_ZN4llvmeqENS_9StringRefES0_.exit.thread16, %_ZN4llvmeqENS_9StringRefES0_.exit.thread16.us, %_ZN4llvmeqENS_9StringRefES0_.exit.thread
  %.sink = phi i8 [ 1, %_ZN4llvmeqENS_9StringRefES0_.exit.thread ], [ 0, %_ZN4llvmeqENS_9StringRefES0_.exit.thread16.us ], [ 0, %_ZN4llvmeqENS_9StringRefES0_.exit.thread16 ]
  %10 = getelementptr inbounds nuw i8, ptr %0, i64 40
  store i8 %.sink, ptr %10, align 8
  ret void
}